; Function Attrs: nounwind uwtable
define ptr @l___private_Lean_Meta_Tactic_Grind_ProveEq_0__Lean_Meta_Grind_withIncOffset___rarg(ptr noundef %0, ptr noundef %1, ptr noundef %2, ptr noundef %3, ptr noundef %4, ptr noundef %5, ptr noundef %6, ptr noundef %7, ptr noundef %8, ptr noundef %9, ptr noundef %10, ptr noundef %11) local_unnamed_addr #1 {
  %13 = ptrtoint ptr %1 to i64
  %14 = and i64 %13, 1
  %.not = icmp eq i64 %14, 0
  br i1 %.not, label %.critedge.i, label %15, !prof !13

15:                                               ; preds = %12
  %16 = lshr i64 %13, 1
  %17 = add nuw i64 %16, 1
  %18 = icmp sgt i64 %17, -1
  br i1 %18, label %19, label %23, !prof !11

19:                                               ; preds = %15
  %20 = shl nuw i64 %17, 1
  %21 = or disjoint i64 %20, 1
  %22 = inttoptr i64 %21 to ptr
  br label %lean_nat_add.exit

23:                                               ; preds = %15
  %24 = tail call ptr @lean_big_usize_to_nat(i64 noundef range(i64 0, -1) %17) #4
  br label %lean_nat_add.exit

.critedge.i:                                      ; preds = %12
  %25 = tail call ptr @lean_nat_big_add(ptr noundef %1, ptr noundef nonnull inttoptr (i64 3 to ptr)) #4
  br label %lean_nat_add.exit

lean_nat_add.exit:                                ; preds = %23, %19, %.critedge.i
  %.0.i = phi ptr [ %25, %.critedge.i ], [ %22, %19 ], [ %24, %23 ]
  %26 = tail call ptr @lean_apply_11(ptr noundef %0, ptr noundef %.0.i, ptr noundef %2, ptr noundef %3, ptr noundef %4, ptr noundef %5, ptr noundef %6, ptr noundef %7, ptr noundef %8, ptr noundef %9, ptr noundef %10, ptr noundef %11) #4
  ret ptr %26
}